target datalayout = "e-m:e-p270:32:32-p271:32:32-p272:64:64-i64:64-i128:128-f80:128-n8:16:32:64-S128"
target triple = "x86_64-pc-linux-gnu"

; Function Attrs: mustprogress nounwind uwtable
define dso_local i64 @meshopt_optimizeVertexFetchRemap(ptr noundef %0, ptr noundef %1, i64 noundef %2, i64 noundef %3) #0 {
  %5 = alloca ptr, align 8
  %6 = alloca ptr, align 8
  %7 = alloca i64, align 8
  %8 = alloca i64, align 8
  %9 = alloca i32, align 4
  %10 = alloca i64, align 8
  %11 = alloca i32, align 4
  store ptr %0, ptr %5, align 8, !tbaa !4
  store ptr %1, ptr %6, align 8, !tbaa !4
  store i64 %2, ptr %7, align 8, !tbaa !9
  store i64 %3, ptr %8, align 8, !tbaa !9
  %12 = load ptr, ptr %5, align 8, !tbaa !4
  %13 = load i64, ptr %8, align 8, !tbaa !9
  %14 = mul i64 %13, 4
  call void @llvm.memset.p0.i64(ptr align 4 %12, i8 -1, i64 %14, i1 false)
  call void @llvm.lifetime.start.p0(i64 4, ptr %9) #8
  store i32 0, ptr %9, align 4, !tbaa !11
  call void @llvm.lifetime.start.p0(i64 8, ptr %10) #8
  store i64 0, ptr %10, align 8, !tbaa !9
  br label %15

15:                                               ; preds = %39, %4
  %16 = load i64, ptr %10, align 8, !tbaa !9
  %17 = load i64, ptr %7, align 8, !tbaa !9
  %18 = icmp ult i64 %16, %17
  br i1 %18, label %20, label %19

19:                                               ; preds = %15
  call void @llvm.lifetime.end.p0(i64 8, ptr %10) #8
  br label %42

20:                                               ; preds = %15
  call void @llvm.lifetime.start.p0(i64 4, ptr %11) #8
  %21 = load ptr, ptr %6, align 8, !tbaa !4
  %22 = load i64, ptr %10, align 8, !tbaa !9
  %23 = getelementptr inbounds nuw i32, ptr %21, i64 %22
  %24 = load i32, ptr %23, align 4, !tbaa !11
  store i32 %24, ptr %11, align 4, !tbaa !11
  %25 = load ptr, ptr %5, align 8, !tbaa !4
  %26 = load i32, ptr %11, align 4, !tbaa !11
  %27 = zext i32 %26 to i64
  %28 = getelementptr inbounds nuw i32, ptr %25, i64 %27
  %29 = load i32, ptr %28, align 4, !tbaa !11
  %30 = icmp eq i32 %29, -1
  br i1 %30, label %31, label %38

31:                                               ; preds = %20
  %32 = load i32, ptr %9, align 4, !tbaa !11
  %33 = add i32 %32, 1
  store i32 %33, ptr %9, align 4, !tbaa !11
  %34 = load ptr, ptr %5, align 8, !tbaa !4
  %35 = load i32, ptr %11, align 4, !tbaa !11
  %36 = zext i32 %35 to i64
  %37 = getelementptr inbounds nuw i32, ptr %34, i64 %36
  store i32 %32, ptr %37, align 4, !tbaa !11
  br label %38

38:                                               ; preds = %31, %20
  call void @llvm.lifetime.end.p0(i64 4, ptr %11) #8
  br label %39

39:                                               ; preds = %38
  %40 = load i64, ptr %10, align 8, !tbaa !9
  %41 = add i64 %40, 1
  store i64 %41, ptr %10, align 8, !tbaa !9
  br label %15, !llvm.loop !13

42:                                               ; preds = %19
  %43 = load i32, ptr %9, align 4, !tbaa !11
  %44 = zext i32 %43 to i64
  call void @llvm.lifetime.end.p0(i64 4, ptr %9) #8
  ret i64 %44
}