; Function Attrs: mustprogress nofree norecurse nosync nounwind memory(argmem: readwrite) uwtable
define dso_local range(i64 0, 4294967296) i64 @meshopt_optimizeVertexFetchRemap(ptr noundef captures(none) %0, ptr noundef readonly captures(none) %1, i64 noundef %2, i64 noundef %3) local_unnamed_addr #0 {
  %5 = shl i64 %3, 2
  tail call void @llvm.memset.p0.i64(ptr align 4 %0, i8 -1, i64 %5, i1 false)
  %.not = icmp eq i64 %2, 0
  br i1 %.not, label %._crit_edge, label %.lr.ph

._crit_edge.loopexit:                             ; preds = %15
  %6 = zext i32 %.1 to i64
  br label %._crit_edge

._crit_edge:                                      ; preds = %._crit_edge.loopexit, %4
  %.0.lcssa = phi i64 [ 0, %4 ], [ %6, %._crit_edge.loopexit ]
  ret i64 %.0.lcssa

.lr.ph:                                           ; preds = %4, %15
  %.014 = phi i32 [ %.1, %15 ], [ 0, %4 ]
  %.01213 = phi i64 [ %16, %15 ], [ 0, %4 ]
  %7 = getelementptr inbounds nuw i32, ptr %1, i64 %.01213
  %8 = load i32, ptr %7, align 4, !tbaa !4
  %9 = zext i32 %8 to i64
  %10 = getelementptr inbounds nuw i32, ptr %0, i64 %9
  %11 = load i32, ptr %10, align 4, !tbaa !4
  %12 = icmp eq i32 %11, -1
  br i1 %12, label %13, label %15

13:                                               ; preds = %.lr.ph
  %14 = add i32 %.014, 1
  store i32 %.014, ptr %10, align 4, !tbaa !4
  br label %15

15:                                               ; preds = %13, %.lr.ph
  %.1 = phi i32 [ %14, %13 ], [ %.014, %.lr.ph ]
  %16 = add nuw i64 %.01213, 1
  %exitcond.not = icmp eq i64 %16, %2
  br i1 %exitcond.not, label %._crit_edge.loopexit, label %.lr.ph, !llvm.loop !8
}